target datalayout = "e-m:e-p270:32:32-p271:32:32-p272:64:64-i64:64-i128:128-f80:128-n8:16:32:64-S128"
target triple = "x86_64-pc-linux-gnu"

%struct._CharList = type { ptr, ptr }

; Function Attrs: nounwind uwtable
define dso_local void @pkg_deleteList(ptr noundef %0) #0 {
  %2 = alloca ptr, align 8
  %3 = alloca ptr, align 8
  store ptr %0, ptr %2, align 8, !tbaa !9
  call void @llvm.lifetime.start.p0(i64 8, ptr %3) #7
  br label %4

4:                                                ; preds = %7, %1
  %5 = load ptr, ptr %2, align 8, !tbaa !9
  %6 = icmp ne ptr %5, null
  br i1 %6, label %7, label %16

7:                                                ; preds = %4
  %8 = load ptr, ptr %2, align 8, !tbaa !9
  %9 = getelementptr inbounds nuw %struct._CharList, ptr %8, i32 0, i32 0
  %10 = load ptr, ptr %9, align 8, !tbaa !15
  call void @uprv_free_77(ptr noundef %10)
  %11 = load ptr, ptr %2, align 8, !tbaa !9
  store ptr %11, ptr %3, align 8, !tbaa !9
  %12 = load ptr, ptr %2, align 8, !tbaa !9
  %13 = getelementptr inbounds nuw %struct._CharList, ptr %12, i32 0, i32 1
  %14 = load ptr, ptr %13, align 8, !tbaa !18
  store ptr %14, ptr %2, align 8, !tbaa !9
  %15 = load ptr, ptr %3, align 8, !tbaa !9
  call void @uprv_free_77(ptr noundef %15)
  br label %4, !llvm.loop !31

16:                                               ; preds = %4
  call void @llvm.lifetime.end.p0(i64 8, ptr %3) #7
  ret void
}