; Function Attrs: nounwind uwtable
define dso_local void @pkg_deleteList(ptr noundef %0) local_unnamed_addr #0 {
  %.not5 = icmp eq ptr %0, null
  br i1 %.not5, label %._crit_edge, label %.lr.ph

.lr.ph:                                           ; preds = %1, %.lr.ph
  %.06 = phi ptr [ %4, %.lr.ph ], [ %0, %1 ]
  %2 = load ptr, ptr %.06, align 8, !tbaa !4
  tail call void @uprv_free_77(ptr noundef %2) #11
  %3 = getelementptr inbounds nuw i8, ptr %.06, i64 8
  %4 = load ptr, ptr %3, align 8, !tbaa !12
  tail call void @uprv_free_77(ptr noundef nonnull %.06) #11
  %.not = icmp eq ptr %4, null
  br i1 %.not, label %._crit_edge, label %.lr.ph, !llvm.loop !23

._crit_edge:                                      ; preds = %.lr.ph, %1
  ret void
}